; Function Attrs: inlinehint mustprogress nounwind uwtable
define internal void @_ZN12_GLOBAL__N_119elim_uncnstr_tacticD2Ev(ptr noundef nonnull align 8 dereferenceable(120) initializes((0, 8)) %0) unnamed_addr #5 align 2 personality ptr @__gxx_personality_v0 {
  store ptr getelementptr inbounds nuw inrange(-16, 192) (i8, ptr @_ZTVN12_GLOBAL__N_119elim_uncnstr_tacticE, i64 16), ptr %0, align 8, !tbaa !9
  %2 = getelementptr inbounds nuw i8, ptr %0, i64 112
  tail call void @_ZN10params_refD1Ev(ptr noundef nonnull align 8 dereferenceable(8) %2) #24
  %3 = getelementptr inbounds nuw i8, ptr %0, i64 80
  %.val = load ptr, ptr %3, align 8, !tbaa !26
  %4 = icmp eq ptr %.val, null
  br i1 %4, label %_ZN10scoped_ptrIN12_GLOBAL__N_119elim_uncnstr_tactic2rwEED2Ev.exit, label %5

5:                                                ; preds = %1
  %6 = load ptr, ptr %.val, align 8, !tbaa !9
  %7 = load ptr, ptr %6, align 8
  tail call void %7(ptr noundef nonnull align 8 dereferenceable(856) %.val) #24
  invoke void @_ZN6memory10deallocateEPv(ptr noundef nonnull %.val)
          to label %_ZN10scoped_ptrIN12_GLOBAL__N_119elim_uncnstr_tactic2rwEED2Ev.exit unwind label %8

8:                                                ; preds = %5
  %9 = landingpad { ptr, i32 }
          catch ptr null
  %10 = extractvalue { ptr, i32 } %9, 0
  tail call void @__clang_call_terminate(ptr %10) #25
  unreachable

_ZN10scoped_ptrIN12_GLOBAL__N_119elim_uncnstr_tactic2rwEED2Ev.exit: ; preds = %1, %5
  %11 = getelementptr inbounds nuw i8, ptr %0, i64 56
  %12 = load ptr, ptr %11, align 8, !tbaa !20
  %13 = icmp eq ptr %12, null
  br i1 %13, label %_ZN14core_hashtableI14obj_hash_entryI4exprE12obj_ptr_hashIS1_E6ptr_eqIS1_EED2Ev.exit, label %14

14:                                               ; preds = %_ZN10scoped_ptrIN12_GLOBAL__N_119elim_uncnstr_tactic2rwEED2Ev.exit
  invoke void @_ZN6memory10deallocateEPv(ptr noundef nonnull %12)
          to label %_ZN14core_hashtableI14obj_hash_entryI4exprE12obj_ptr_hashIS1_E6ptr_eqIS1_EED2Ev.exit unwind label %15

15:                                               ; preds = %14
  %16 = landingpad { ptr, i32 }
          catch ptr null
  %17 = extractvalue { ptr, i32 } %16, 0
  tail call void @__clang_call_terminate(ptr %17) #25
  unreachable

_ZN14core_hashtableI14obj_hash_entryI4exprE12obj_ptr_hashIS1_E6ptr_eqIS1_EED2Ev.exit: ; preds = %_ZN10scoped_ptrIN12_GLOBAL__N_119elim_uncnstr_tactic2rwEED2Ev.exit, %14
  store ptr null, ptr %11, align 8, !tbaa !20
  %18 = getelementptr inbounds nuw i8, ptr %0, i64 32
  %19 = load ptr, ptr %18, align 8, !tbaa !20
  %20 = icmp eq ptr %19, null
  br i1 %20, label %_ZN14core_hashtableI14obj_hash_entryI4exprE12obj_ptr_hashIS1_E6ptr_eqIS1_EED2Ev.exit1, label %21

21:                                               ; preds = %_ZN14core_hashtableI14obj_hash_entryI4exprE12obj_ptr_hashIS1_E6ptr_eqIS1_EED2Ev.exit
  invoke void @_ZN6memory10deallocateEPv(ptr noundef nonnull %19)
          to label %_ZN14core_hashtableI14obj_hash_entryI4exprE12obj_ptr_hashIS1_E6ptr_eqIS1_EED2Ev.exit1 unwind label %22

22:                                               ; preds = %21
  %23 = landingpad { ptr, i32 }
          catch ptr null
  %24 = extractvalue { ptr, i32 } %23, 0
  tail call void @__clang_call_terminate(ptr %24) #25
  unreachable

_ZN14core_hashtableI14obj_hash_entryI4exprE12obj_ptr_hashIS1_E6ptr_eqIS1_EED2Ev.exit1: ; preds = %_ZN14core_hashtableI14obj_hash_entryI4exprE12obj_ptr_hashIS1_E6ptr_eqIS1_EED2Ev.exit, %21
  store ptr null, ptr %18, align 8, !tbaa !20
  %25 = getelementptr inbounds nuw i8, ptr %0, i64 24
  %26 = load ptr, ptr %25, align 8, !tbaa !14
  %.not.i.i = icmp eq ptr %26, null
  br i1 %.not.i.i, label %_ZN3refI23generic_model_converterED2Ev.exit, label %27

27:                                               ; preds = %_ZN14core_hashtableI14obj_hash_entryI4exprE12obj_ptr_hashIS1_E6ptr_eqIS1_EED2Ev.exit1
  %28 = getelementptr inbounds nuw i8, ptr %26, i64 8
  %29 = load i32, ptr %28, align 8, !tbaa !35
  %30 = add i32 %29, -1
  store i32 %30, ptr %28, align 8, !tbaa !35
  %31 = icmp eq i32 %30, 0
  br i1 %31, label %32, label %_ZN3refI23generic_model_converterED2Ev.exit

32:                                               ; preds = %27
  %33 = load ptr, ptr %26, align 8, !tbaa !9
  %34 = load ptr, ptr %33, align 8
  tail call void %34(ptr noundef nonnull align 8 dereferenceable(12) %26) #24
  invoke void @_ZN6memory10deallocateEPv(ptr noundef nonnull align 8 dereferenceable(12) %26)
          to label %_ZN3refI23generic_model_converterED2Ev.exit unwind label %35

35:                                               ; preds = %32
  %36 = landingpad { ptr, i32 }
          catch ptr null
  %37 = extractvalue { ptr, i32 } %36, 0
  tail call void @__clang_call_terminate(ptr %37) #25
  unreachable

_ZN3refI23generic_model_converterED2Ev.exit:      ; preds = %_ZN14core_hashtableI14obj_hash_entryI4exprE12obj_ptr_hashIS1_E6ptr_eqIS1_EED2Ev.exit1, %27, %32
  ret void
}